; Function Attrs: mustprogress uwtable
define dso_local void @_ZN3net18ReliableQuicStream12AddBytesSentEm(ptr noundef nonnull align 8 dereferenceable(377) %this, i64 noundef %bytes) local_unnamed_addr #2 align 2 {
entry:
  %flow_controller_ = getelementptr inbounds i8, ptr %this, i64 272
  tail call void @_ZN3net18QuicFlowController12AddBytesSentEm(ptr noundef nonnull align 8 dereferenceable(96) %flow_controller_, i64 noundef %bytes)
  %stream_contributes_to_connection_flow_control_ = getelementptr inbounds i8, ptr %this, i64 376
  %0 = load i8, ptr %stream_contributes_to_connection_flow_control_, align 8
  %1 = and i8 %0, 1
  %tobool.not = icmp eq i8 %1, 0
  br i1 %tobool.not, label %if.end, label %if.then

if.then:                                          ; preds = %entry
  %connection_flow_controller_ = getelementptr inbounds i8, ptr %this, i64 368
  %2 = load ptr, ptr %connection_flow_controller_, align 8
  tail call void @_ZN3net18QuicFlowController12AddBytesSentEm(ptr noundef nonnull align 8 dereferenceable(96) %2, i64 noundef %bytes)
  br label %if.end

if.end:                                           ; preds = %if.then, %entry
  ret void
}